target datalayout = "e-m:e-p270:32:32-p271:32:32-p272:64:64-i64:64-i128:128-f80:128-n8:16:32:64-S128"
target triple = "x86_64-pc-linux-gnu"

%struct.lv_area_t = type { i32, i32, i32, i32 }
%struct._lv_layer_t = type { ptr, %struct.lv_area_t, i32, %struct.lv_area_t, %struct.lv_area_t, ptr, ptr, ptr, i8, ptr }

; Function Attrs: nounwind uwtable
define void @lv_demo_vector_graphic_buffered() #0 {
  %1 = alloca ptr, align 8
  %2 = alloca ptr, align 8
  %3 = alloca %struct._lv_layer_t, align 8
  call void @llvm.lifetime.start.p0(i64 8, ptr %1) #5
  %4 = call ptr @lv_draw_buf_create(i32 noundef 640, i32 noundef 480, i32 noundef 16, i32 noundef 0)
  store ptr %4, ptr %1, align 8, !tbaa !3
  %5 = load ptr, ptr %1, align 8, !tbaa !3
  call void @lv_draw_buf_clear(ptr noundef %5, ptr noundef null)
  call void @llvm.lifetime.start.p0(i64 8, ptr %2) #5
  %6 = call ptr @lv_screen_active()
  %7 = call ptr @lv_canvas_create(ptr noundef %6)
  store ptr %7, ptr %2, align 8, !tbaa !3
  %8 = load ptr, ptr %2, align 8, !tbaa !3
  %9 = load ptr, ptr %1, align 8, !tbaa !3
  call void @lv_canvas_set_draw_buf(ptr noundef %8, ptr noundef %9)
  %10 = load ptr, ptr %2, align 8, !tbaa !3
  %11 = call ptr @lv_obj_add_event_cb(ptr noundef %10, ptr noundef @delete_event_cb, i32 noundef 41, ptr noundef null)
  call void @llvm.lifetime.start.p0(i64 104, ptr %3) #5
  %12 = load ptr, ptr %2, align 8, !tbaa !3
  call void @lv_canvas_init_layer(ptr noundef %12, ptr noundef %3)
  call void @draw_vector(ptr noundef %3)
  %13 = load ptr, ptr %2, align 8, !tbaa !3
  call void @lv_canvas_finish_layer(ptr noundef %13, ptr noundef %3)
  call void @llvm.lifetime.end.p0(i64 104, ptr %3) #5
  call void @llvm.lifetime.end.p0(i64 8, ptr %2) #5
  call void @llvm.lifetime.end.p0(i64 8, ptr %1) #5
  ret void
}