; Function Attrs: nounwind uwtable
define void @lv_demo_vector_graphic_buffered() local_unnamed_addr #0 {
  %1 = alloca %struct._lv_layer_t, align 8
  %2 = tail call ptr @lv_draw_buf_create(i32 noundef 640, i32 noundef 480, i32 noundef 16, i32 noundef 0) #4
  tail call void @lv_draw_buf_clear(ptr noundef %2, ptr noundef null) #4
  %3 = tail call ptr @lv_screen_active() #4
  %4 = tail call ptr @lv_canvas_create(ptr noundef %3) #4
  tail call void @lv_canvas_set_draw_buf(ptr noundef %4, ptr noundef %2) #4
  %5 = tail call ptr @lv_obj_add_event_cb(ptr noundef %4, ptr noundef nonnull @delete_event_cb, i32 noundef 41, ptr noundef null) #4
  call void @llvm.lifetime.start.p0(i64 104, ptr nonnull %1) #4
  call void @lv_canvas_init_layer(ptr noundef %4, ptr noundef nonnull %1) #4
  call fastcc void @draw_vector(ptr noundef nonnull %1)
  call void @lv_canvas_finish_layer(ptr noundef %4, ptr noundef nonnull %1) #4
  call void @llvm.lifetime.end.p0(i64 104, ptr nonnull %1) #4
  ret void
}